target datalayout = "e-m:e-p270:32:32-p271:32:32-p272:64:64-i64:64-i128:128-f80:128-n8:16:32:64-S128"
target triple = "x86_64-unknown-linux-gnu"

%class.opt_stream_buffer = type { ptr, i32, i32 }
%class.opb = type { ptr, ptr, ptr, ptr, %class.arith_util }
%class.arith_util = type { ptr, ptr }

; Function Attrs: mustprogress uwtable
define linkonce_odr hidden void @_ZN3opbC2ERN3opt7contextER17opt_stream_bufferR7svectorIjjE(ptr noundef nonnull align 8 dereferenceable(48) %this, ptr noundef nonnull align 8 dereferenceable(792) %opt, ptr noundef nonnull align 8 dereferenceable(16) %in, ptr noundef nonnull align 8 dereferenceable(8) %h) unnamed_addr #5 comdat align 2 {
entry:
  %this.addr = alloca ptr, align 8
  %opt.addr = alloca ptr, align 8
  %in.addr = alloca ptr, align 8
  %h.addr = alloca ptr, align 8
  store ptr %this, ptr %this.addr, align 8
  store ptr %opt, ptr %opt.addr, align 8
  store ptr %in, ptr %in.addr, align 8
  store ptr %h, ptr %h.addr, align 8
  %this1 = load ptr, ptr %this.addr, align 8
  %opt2 = getelementptr inbounds %class.opb, ptr %this1, i32 0, i32 0
  %0 = load ptr, ptr %opt.addr, align 8
  store ptr %0, ptr %opt2, align 8
  %m = getelementptr inbounds %class.opb, ptr %this1, i32 0, i32 1
  %1 = load ptr, ptr %opt.addr, align 8
  %vtable = load ptr, ptr %1, align 8
  %vfn = getelementptr inbounds ptr, ptr %vtable, i64 9
  %2 = load ptr, ptr %vfn, align 8
  %call = call noundef nonnull align 8 dereferenceable(976) ptr %2(ptr noundef nonnull align 8 dereferenceable(792) %1)
  store ptr %call, ptr %m, align 8
  %in3 = getelementptr inbounds %class.opb, ptr %this1, i32 0, i32 2
  %3 = load ptr, ptr %in.addr, align 8
  store ptr %3, ptr %in3, align 8
  %m_handles = getelementptr inbounds %class.opb, ptr %this1, i32 0, i32 3
  %4 = load ptr, ptr %h.addr, align 8
  store ptr %4, ptr %m_handles, align 8
  %arith = getelementptr inbounds %class.opb, ptr %this1, i32 0, i32 4
  %m4 = getelementptr inbounds %class.opb, ptr %this1, i32 0, i32 1
  %5 = load ptr, ptr %m4, align 8
  call void @_ZN10arith_utilC1ER11ast_manager(ptr noundef nonnull align 8 dereferenceable(16) %arith, ptr noundef nonnull align 8 dereferenceable(976) %5)
  ret void
}

; Function Attrs: mustprogress uwtable
define linkonce_odr hidden void @_ZN17opt_stream_bufferC2ERSi(ptr noundef nonnull align 8 dereferenceable(16) %this, ptr noundef nonnull align 8 dereferenceable(16) %s) unnamed_addr #5 comdat align 2 {
entry:
  %this.addr = alloca ptr, align 8
  %s.addr = alloca ptr, align 8
  store ptr %this, ptr %this.addr, align 8
  store ptr %s, ptr %s.addr, align 8
  %this1 = load ptr, ptr %this.addr, align 8
  %m_stream = getelementptr inbounds %class.opt_stream_buffer, ptr %this1, i32 0, i32 0
  %0 = load ptr, ptr %s.addr, align 8
  store ptr %0, ptr %m_stream, align 8
  %m_line = getelementptr inbounds %class.opt_stream_buffer, ptr %this1, i32 0, i32 2
  store i32 0, ptr %m_line, align 4
  %m_stream2 = getelementptr inbounds %class.opt_stream_buffer, ptr %this1, i32 0, i32 0
  %1 = load ptr, ptr %m_stream2, align 8
  %call = call noundef i32 @_ZNSi3getEv(ptr noundef nonnull align 8 dereferenceable(16) %1)
  %m_val = getelementptr inbounds %class.opt_stream_buffer, ptr %this1, i32 0, i32 1
  store i32 %call, ptr %m_val, align 8
  ret void
}

; Function Attrs: mustprogress uwtable
define hidden void @_Z9parse_opbRN3opt7contextERSiR7svectorIjjE(ptr noundef nonnull align 8 dereferenceable(792) %opt, ptr noundef nonnull align 8 dereferenceable(16) %is, ptr noundef nonnull align 8 dereferenceable(8) %h) #5 {
entry:
  %opt.addr = alloca ptr, align 8
  %is.addr = alloca ptr, align 8
  %h.addr = alloca ptr, align 8
  %_is = alloca %class.opt_stream_buffer, align 8
  %opb = alloca %class.opb, align 8
  store ptr %opt, ptr %opt.addr, align 8
  store ptr %is, ptr %is.addr, align 8
  store ptr %h, ptr %h.addr, align 8
  %0 = load ptr, ptr %is.addr, align 8
  call void @_ZN17opt_stream_bufferC2ERSi(ptr noundef nonnull align 8 dereferenceable(16) %_is, ptr noundef nonnull align 8 dereferenceable(16) %0)
  %1 = load ptr, ptr %opt.addr, align 8
  %2 = load ptr, ptr %h.addr, align 8
  call void @_ZN3opbC2ERN3opt7contextER17opt_stream_bufferR7svectorIjjE(ptr noundef nonnull align 8 dereferenceable(48) %opb, ptr noundef nonnull align 8 dereferenceable(792) %1, ptr noundef nonnull align 8 dereferenceable(16) %_is, ptr noundef nonnull align 8 dereferenceable(8) %2)
  call void @_ZN3opb5parseEv(ptr noundef nonnull align 8 dereferenceable(48) %opb)
  ret void
}