; Function Attrs: mustprogress uwtable
define hidden void @_Z9parse_opbRN3opt7contextERSiR7svectorIjjE(ptr noundef nonnull align 8 dereferenceable(792) %opt, ptr noundef nonnull align 8 dereferenceable(16) %is, ptr noundef nonnull align 8 dereferenceable(8) %h) local_unnamed_addr #3 {
entry:
  %_is = alloca %class.opt_stream_buffer, align 8
  %opb = alloca %class.opb, align 8
  store ptr %is, ptr %_is, align 8
  %m_line.i = getelementptr inbounds i8, ptr %_is, i64 12
  store i32 0, ptr %m_line.i, align 4
  %call.i = tail call noundef i32 @_ZNSi3getEv(ptr noundef nonnull align 8 dereferenceable(16) %is)
  %m_val.i = getelementptr inbounds i8, ptr %_is, i64 8
  store i32 %call.i, ptr %m_val.i, align 8
  store ptr %opt, ptr %opb, align 8
  %m.i = getelementptr inbounds i8, ptr %opb, i64 8
  %vtable.i = load ptr, ptr %opt, align 8
  %vfn.i = getelementptr inbounds i8, ptr %vtable.i, i64 72
  %0 = load ptr, ptr %vfn.i, align 8
  %call.i1 = tail call noundef nonnull align 8 dereferenceable(976) ptr %0(ptr noundef nonnull align 8 dereferenceable(792) %opt)
  store ptr %call.i1, ptr %m.i, align 8
  %in3.i = getelementptr inbounds i8, ptr %opb, i64 16
  store ptr %_is, ptr %in3.i, align 8
  %m_handles.i = getelementptr inbounds i8, ptr %opb, i64 24
  store ptr %h, ptr %m_handles.i, align 8
  %arith.i = getelementptr inbounds i8, ptr %opb, i64 32
  call void @_ZN10arith_utilC1ER11ast_manager(ptr noundef nonnull align 8 dereferenceable(16) %arith.i, ptr noundef nonnull align 8 dereferenceable(976) %call.i1)
  call void @_ZN3opb5parseEv(ptr noundef nonnull align 8 dereferenceable(48) %opb)
  ret void
}